target datalayout = "e-m:e-p270:32:32-p271:32:32-p272:64:64-i64:64-i128:128-f80:128-n8:16:32:64-S128"
target triple = "x86_64-pc-linux-gnu"

%struct.AVCodecContext = type { ptr, i32, i32, ptr, i32, i32, ptr, ptr, ptr, i64, i32, i32, ptr, i32, %struct.AVRational, %struct.AVRational, %struct.AVRational, i32, i32, i32, i32, i32, %struct.AVRational, i32, i32, i32, i32, i32, i32, i32, i32, i32, i32, i32, ptr, ptr, i32, float, float, float, float, float, float, float, float, float, i32, i32, i32, i32, i32, i32, i32, i32, i32, i32, i32, i32, ptr, ptr, ptr, i32, i32, i32, i32, i32, i32, i32, i32, i32, i32, %struct.AVChannelLayout, i32, i32, i32, i32, i32, i32, i32, i32, ptr, i32, i32, i32, float, float, i32, i32, i32, i32, i32, ptr, i64, i64, float, float, i32, i32, ptr, ptr, i32, i32, i32, i32, i32, ptr, ptr, ptr, ptr, i32, i32, [8 x i64], i32, i32, i32, i32, i32, i32, i32, ptr, ptr, i32, i32, i32, i32, i32, i32, i32, i32, i32, i32, ptr, ptr, i32, i32, ptr, ptr, ptr, ptr, i32, i32, i64, i32, i32, i64, ptr, i64, ptr, i32, ptr, i32 }
%struct.AVRational = type { i32, i32 }
%struct.AVChannelLayout = type { i32, i32, %union.anon.0, ptr }
%union.anon.0 = type { i64 }
%struct.VBDecContext = type { ptr, ptr, ptr, [256 x i32], %struct.GetByteContext }
%struct.GetByteContext = type { ptr, ptr, ptr }

; Function Attrs: cold nounwind optsize uwtable
define internal i32 @decode_init(ptr noundef %0) #0 {
  %2 = alloca i32, align 4
  %3 = alloca ptr, align 8
  %4 = alloca ptr, align 8
  %5 = alloca i32, align 4
  store ptr %0, ptr %3, align 8, !tbaa !4
  call void @llvm.lifetime.start.p0(i64 8, ptr %4) #9
  %6 = load ptr, ptr %3, align 8, !tbaa !4
  %7 = getelementptr inbounds nuw %struct.AVCodecContext, ptr %6, i32 0, i32 6
  %8 = load ptr, ptr %7, align 8, !tbaa !9
  store ptr %8, ptr %4, align 8, !tbaa !29
  %9 = load ptr, ptr %3, align 8, !tbaa !4
  %10 = load ptr, ptr %4, align 8, !tbaa !29
  %11 = getelementptr inbounds nuw %struct.VBDecContext, ptr %10, i32 0, i32 0
  store ptr %9, ptr %11, align 8, !tbaa !31
  %12 = load ptr, ptr %3, align 8, !tbaa !4
  %13 = getelementptr inbounds nuw %struct.AVCodecContext, ptr %12, i32 0, i32 23
  store i32 11, ptr %13, align 8, !tbaa !34
  %14 = load ptr, ptr %3, align 8, !tbaa !4
  %15 = getelementptr inbounds nuw %struct.AVCodecContext, ptr %14, i32 0, i32 18
  %16 = load i32, ptr %15, align 8, !tbaa !35
  %17 = load ptr, ptr %3, align 8, !tbaa !4
  %18 = getelementptr inbounds nuw %struct.AVCodecContext, ptr %17, i32 0, i32 19
  %19 = load i32, ptr %18, align 4, !tbaa !36
  %20 = mul nsw i32 %16, %19
  %21 = sext i32 %20 to i64
  %22 = call noalias ptr @av_mallocz(i64 noundef %21)
  %23 = load ptr, ptr %4, align 8, !tbaa !29
  %24 = getelementptr inbounds nuw %struct.VBDecContext, ptr %23, i32 0, i32 1
  store ptr %22, ptr %24, align 8, !tbaa !37
  %25 = load ptr, ptr %3, align 8, !tbaa !4
  %26 = getelementptr inbounds nuw %struct.AVCodecContext, ptr %25, i32 0, i32 18
  %27 = load i32, ptr %26, align 8, !tbaa !35
  %28 = load ptr, ptr %3, align 8, !tbaa !4
  %29 = getelementptr inbounds nuw %struct.AVCodecContext, ptr %28, i32 0, i32 19
  %30 = load i32, ptr %29, align 4, !tbaa !36
  %31 = mul nsw i32 %27, %30
  %32 = sext i32 %31 to i64
  %33 = call noalias ptr @av_mallocz(i64 noundef %32)
  %34 = load ptr, ptr %4, align 8, !tbaa !29
  %35 = getelementptr inbounds nuw %struct.VBDecContext, ptr %34, i32 0, i32 2
  store ptr %33, ptr %35, align 8, !tbaa !38
  %36 = load ptr, ptr %4, align 8, !tbaa !29
  %37 = getelementptr inbounds nuw %struct.VBDecContext, ptr %36, i32 0, i32 1
  %38 = load ptr, ptr %37, align 8, !tbaa !37
  %39 = icmp ne ptr %38, null
  br i1 %39, label %40, label %45

40:                                               ; preds = %1
  %41 = load ptr, ptr %4, align 8, !tbaa !29
  %42 = getelementptr inbounds nuw %struct.VBDecContext, ptr %41, i32 0, i32 2
  %43 = load ptr, ptr %42, align 8, !tbaa !38
  %44 = icmp ne ptr %43, null
  br i1 %44, label %46, label %45

45:                                               ; preds = %40, %1
  store i32 -12, ptr %2, align 4
  store i32 1, ptr %5, align 4
  br label %47

46:                                               ; preds = %40
  store i32 0, ptr %2, align 4
  store i32 1, ptr %5, align 4
  br label %47

47:                                               ; preds = %46, %45
  call void @llvm.lifetime.end.p0(i64 8, ptr %4) #9
  %48 = load i32, ptr %2, align 4
  ret i32 %48
}