; Function Attrs: cold nounwind optsize uwtable
define internal range(i32 -12, 1) i32 @decode_init(ptr noundef %0) #0 {
  %2 = getelementptr inbounds nuw i8, ptr %0, i64 32
  %3 = load ptr, ptr %2, align 8, !tbaa !4
  store ptr %0, ptr %3, align 8, !tbaa !27
  %4 = getelementptr inbounds nuw i8, ptr %0, i64 136
  store i32 11, ptr %4, align 8, !tbaa !31
  %5 = getelementptr inbounds nuw i8, ptr %0, i64 112
  %6 = load i32, ptr %5, align 8, !tbaa !32
  %7 = getelementptr inbounds nuw i8, ptr %0, i64 116
  %8 = load i32, ptr %7, align 4, !tbaa !33
  %9 = mul nsw i32 %8, %6
  %10 = sext i32 %9 to i64
  %11 = tail call noalias ptr @av_mallocz(i64 noundef %10) #6
  %12 = getelementptr inbounds nuw i8, ptr %3, i64 8
  store ptr %11, ptr %12, align 8, !tbaa !34
  %13 = load i32, ptr %5, align 8, !tbaa !32
  %14 = load i32, ptr %7, align 4, !tbaa !33
  %15 = mul nsw i32 %14, %13
  %16 = sext i32 %15 to i64
  %17 = tail call noalias ptr @av_mallocz(i64 noundef %16) #6
  %18 = getelementptr inbounds nuw i8, ptr %3, i64 16
  store ptr %17, ptr %18, align 8, !tbaa !35
  %19 = load ptr, ptr %12, align 8, !tbaa !34
  %.not = icmp eq ptr %19, null
  %.not12 = icmp eq ptr %17, null
  %or.cond = select i1 %.not, i1 true, i1 %.not12
  %.0 = select i1 %or.cond, i32 -12, i32 0
  ret i32 %.0
}